target datalayout = "e-m:e-p270:32:32-p271:32:32-p272:64:64-i64:64-i128:128-f80:128-n8:16:32:64-S128"
target triple = "x86_64-pc-linux-gnu"

%struct.FFV1Context = type { ptr, ptr, [256 x [2 x i64]], [8 x ptr], i32, i32, i32, i32, i32, i32, i32, i32, i32, i32, i64, i32, %struct.ProgressFrame, %struct.ProgressFrame, ptr, ptr, i32, i32, i32, ptr, i32, i32, [8 x [5 x [256 x i16]]], [8 x i32], [256 x i8], [8 x ptr], i32, i32, i32, i32, i32, i32, i32, i32, i32, i32, i32, i32, i32, i32, i32, i32, i32, i32, i32, ptr, ptr, i8 }
%struct.ProgressFrame = type { ptr, ptr }
%struct.PlaneContext = type { i32, i32, ptr, ptr }
%struct.FFV1SliceContext = type { ptr, ptr, i32, i32, i32, i32, i32, i32, i32, i32, i32, i32, i32, ptr, %struct.PutBitContext, %struct.RangeCoder, i32, %union.anon.0, [4 x i32], [4 x ptr], [4 x ptr], [4 x ptr], [4 x i32], [4 x i32], [4 x ptr] }
%struct.PutBitContext = type { i32, i32, ptr, ptr, ptr }
%struct.RangeCoder = type { i32, i32, i32, i32, [256 x i8], [256 x i8], ptr, ptr, ptr, i32 }
%union.anon.0 = type { %struct.anon.1 }
%struct.anon.1 = type { [256 x [2 x i64]], [8 x ptr] }
%struct.VlcState = type { i32, i16, i8, i8 }

; Function Attrs: nounwind uwtable
define void @ff_ffv1_clear_slice_state(ptr noundef %0, ptr noundef %1) #1 {
  %3 = alloca ptr, align 8
  %4 = alloca ptr, align 8
  %5 = alloca i32, align 4
  %6 = alloca i32, align 4
  %7 = alloca ptr, align 8
  store ptr %0, ptr %3, align 8, !tbaa !9
  store ptr %1, ptr %4, align 8, !tbaa !52
  call void @llvm.lifetime.start.p0(i64 4, ptr %5) #9
  call void @llvm.lifetime.start.p0(i64 4, ptr %6) #9
  store i32 0, ptr %5, align 4, !tbaa !45
  br label %8

8:                                                ; preds = %103, %2
  %9 = load i32, ptr %5, align 4, !tbaa !45
  %10 = load ptr, ptr %3, align 8, !tbaa !9
  %11 = getelementptr inbounds nuw %struct.FFV1Context, ptr %10, i32 0, i32 24
  %12 = load i32, ptr %11, align 8, !tbaa !53
  %13 = icmp slt i32 %9, %12
  br i1 %13, label %14, label %106

14:                                               ; preds = %8
  call void @llvm.lifetime.start.p0(i64 8, ptr %7) #9
  %15 = load ptr, ptr %4, align 8, !tbaa !52
  %16 = getelementptr inbounds nuw %struct.FFV1SliceContext, ptr %15, i32 0, i32 13
  %17 = load ptr, ptr %16, align 8, !tbaa !54
  %18 = load i32, ptr %5, align 4, !tbaa !45
  %19 = sext i32 %18 to i64
  %20 = getelementptr inbounds %struct.PlaneContext, ptr %17, i64 %19
  store ptr %20, ptr %7, align 8, !tbaa !48
  %21 = load ptr, ptr %3, align 8, !tbaa !9
  %22 = getelementptr inbounds nuw %struct.FFV1Context, ptr %21, i32 0, i32 25
  %23 = load i32, ptr %22, align 4, !tbaa !58
  %24 = icmp ne i32 %23, 0
  br i1 %24, label %25, label %62

25:                                               ; preds = %14
  %26 = load ptr, ptr %3, align 8, !tbaa !9
  %27 = getelementptr inbounds nuw %struct.FFV1Context, ptr %26, i32 0, i32 29
  %28 = load ptr, ptr %7, align 8, !tbaa !48
  %29 = getelementptr inbounds nuw %struct.PlaneContext, ptr %28, i32 0, i32 0
  %30 = load i32, ptr %29, align 8, !tbaa !89
  %31 = sext i32 %30 to i64
  %32 = getelementptr inbounds [8 x ptr], ptr %27, i64 0, i64 %31
  %33 = load ptr, ptr %32, align 8, !tbaa !87
  %34 = icmp ne ptr %33, null
  br i1 %34, label %35, label %52

35:                                               ; preds = %25
  %36 = load ptr, ptr %7, align 8, !tbaa !48
  %37 = getelementptr inbounds nuw %struct.PlaneContext, ptr %36, i32 0, i32 2
  %38 = load ptr, ptr %37, align 8, !tbaa !59
  %39 = load ptr, ptr %3, align 8, !tbaa !9
  %40 = getelementptr inbounds nuw %struct.FFV1Context, ptr %39, i32 0, i32 29
  %41 = load ptr, ptr %7, align 8, !tbaa !48
  %42 = getelementptr inbounds nuw %struct.PlaneContext, ptr %41, i32 0, i32 0
  %43 = load i32, ptr %42, align 8, !tbaa !89
  %44 = sext i32 %43 to i64
  %45 = getelementptr inbounds [8 x ptr], ptr %40, i64 0, i64 %44
  %46 = load ptr, ptr %45, align 8, !tbaa !87
  %47 = load ptr, ptr %7, align 8, !tbaa !48
  %48 = getelementptr inbounds nuw %struct.PlaneContext, ptr %47, i32 0, i32 1
  %49 = load i32, ptr %48, align 4, !tbaa !62
  %50 = mul nsw i32 32, %49
  %51 = sext i32 %50 to i64
  call void @llvm.memcpy.p0.p0.i64(ptr align 1 %38, ptr align 1 %46, i64 %51, i1 false)
  br label %61

52:                                               ; preds = %25
  %53 = load ptr, ptr %7, align 8, !tbaa !48
  %54 = getelementptr inbounds nuw %struct.PlaneContext, ptr %53, i32 0, i32 2
  %55 = load ptr, ptr %54, align 8, !tbaa !59
  %56 = load ptr, ptr %7, align 8, !tbaa !48
  %57 = getelementptr inbounds nuw %struct.PlaneContext, ptr %56, i32 0, i32 1
  %58 = load i32, ptr %57, align 4, !tbaa !62
  %59 = mul nsw i32 32, %58
  %60 = sext i32 %59 to i64
  call void @llvm.memset.p0.i64(ptr align 1 %55, i8 -128, i64 %60, i1 false)
  br label %61

61:                                               ; preds = %52, %35
  br label %102

62:                                               ; preds = %14
  store i32 0, ptr %6, align 4, !tbaa !45
  br label %63

63:                                               ; preds = %98, %62
  %64 = load i32, ptr %6, align 4, !tbaa !45
  %65 = load ptr, ptr %7, align 8, !tbaa !48
  %66 = getelementptr inbounds nuw %struct.PlaneContext, ptr %65, i32 0, i32 1
  %67 = load i32, ptr %66, align 4, !tbaa !62
  %68 = icmp slt i32 %64, %67
  br i1 %68, label %69, label %101

69:                                               ; preds = %63
  %70 = load ptr, ptr %7, align 8, !tbaa !48
  %71 = getelementptr inbounds nuw %struct.PlaneContext, ptr %70, i32 0, i32 3
  %72 = load ptr, ptr %71, align 8, !tbaa !63
  %73 = load i32, ptr %6, align 4, !tbaa !45
  %74 = sext i32 %73 to i64
  %75 = getelementptr inbounds %struct.VlcState, ptr %72, i64 %74
  %76 = getelementptr inbounds nuw %struct.VlcState, ptr %75, i32 0, i32 1
  store i16 0, ptr %76, align 4, !tbaa !90
  %77 = load ptr, ptr %7, align 8, !tbaa !48
  %78 = getelementptr inbounds nuw %struct.PlaneContext, ptr %77, i32 0, i32 3
  %79 = load ptr, ptr %78, align 8, !tbaa !63
  %80 = load i32, ptr %6, align 4, !tbaa !45
  %81 = sext i32 %80 to i64
  %82 = getelementptr inbounds %struct.VlcState, ptr %79, i64 %81
  %83 = getelementptr inbounds nuw %struct.VlcState, ptr %82, i32 0, i32 0
  store i32 4, ptr %83, align 4, !tbaa !64
  %84 = load ptr, ptr %7, align 8, !tbaa !48
  %85 = getelementptr inbounds nuw %struct.PlaneContext, ptr %84, i32 0, i32 3
  %86 = load ptr, ptr %85, align 8, !tbaa !63
  %87 = load i32, ptr %6, align 4, !tbaa !45
  %88 = sext i32 %87 to i64
  %89 = getelementptr inbounds %struct.VlcState, ptr %86, i64 %88
  %90 = getelementptr inbounds nuw %struct.VlcState, ptr %89, i32 0, i32 2
  store i8 0, ptr %90, align 2, !tbaa !91
  %91 = load ptr, ptr %7, align 8, !tbaa !48
  %92 = getelementptr inbounds nuw %struct.PlaneContext, ptr %91, i32 0, i32 3
  %93 = load ptr, ptr %92, align 8, !tbaa !63
  %94 = load i32, ptr %6, align 4, !tbaa !45
  %95 = sext i32 %94 to i64
  %96 = getelementptr inbounds %struct.VlcState, ptr %93, i64 %95
  %97 = getelementptr inbounds nuw %struct.VlcState, ptr %96, i32 0, i32 3
  store i8 1, ptr %97, align 1, !tbaa !67
  br label %98

98:                                               ; preds = %69
  %99 = load i32, ptr %6, align 4, !tbaa !45
  %100 = add nsw i32 %99, 1
  store i32 %100, ptr %6, align 4, !tbaa !45
  br label %63, !llvm.loop !92

101:                                              ; preds = %63
  br label %102

102:                                              ; preds = %101, %61
  call void @llvm.lifetime.end.p0(i64 8, ptr %7) #9
  br label %103

103:                                              ; preds = %102
  %104 = load i32, ptr %5, align 4, !tbaa !45
  %105 = add nsw i32 %104, 1
  store i32 %105, ptr %5, align 4, !tbaa !45
  br label %8, !llvm.loop !93

106:                                              ; preds = %8
  call void @llvm.lifetime.end.p0(i64 4, ptr %6) #9
  call void @llvm.lifetime.end.p0(i64 4, ptr %5) #9
  ret void
}