; Function Attrs: nofree norecurse nosync nounwind memory(readwrite, inaccessiblemem: none) uwtable
define void @ff_ffv1_clear_slice_state(ptr noundef readonly captures(none) %0, ptr noundef readonly captures(none) %1) local_unnamed_addr #8 {
  %3 = getelementptr inbounds nuw i8, ptr %0, i64 4304
  %4 = load i32, ptr %3, align 8, !tbaa !43
  %5 = icmp sgt i32 %4, 0
  br i1 %5, label %.lr.ph29, label %._crit_edge

.lr.ph29:                                         ; preds = %2
  %6 = getelementptr inbounds nuw i8, ptr %1, i64 64
  %7 = getelementptr inbounds nuw i8, ptr %0, i64 4308
  %8 = getelementptr inbounds nuw i8, ptr %0, i64 25080
  %9 = load i32, ptr %7, align 4, !tbaa !49
  %10 = icmp eq i32 %9, 0
  br i1 %10, label %.lr.ph29.split.us, label %.lr.ph29.split

.lr.ph29.split.us:                                ; preds = %.lr.ph29
  %11 = load ptr, ptr %6, align 8, !tbaa !44
  %wide.trip.count43 = zext nneg i32 %4 to i64
  br label %.preheader.us

.preheader.us:                                    ; preds = %.loopexit.us, %.lr.ph29.split.us
  %indvars.iv40 = phi i64 [ %indvars.iv.next41, %.loopexit.us ], [ 0, %.lr.ph29.split.us ]
  %12 = getelementptr inbounds nuw %struct.PlaneContext, ptr %11, i64 %indvars.iv40
  %13 = getelementptr inbounds nuw i8, ptr %12, i64 4
  %14 = load i32, ptr %13, align 4, !tbaa !53
  %15 = icmp sgt i32 %14, 0
  br i1 %15, label %.lr.ph.us, label %.loopexit.us

16:                                               ; preds = %.lr.ph.us, %16
  %indvars.iv35 = phi i64 [ 0, %.lr.ph.us ], [ %indvars.iv.next36, %16 ]
  %17 = getelementptr inbounds nuw %struct.VlcState, ptr %22, i64 %indvars.iv35, i32 1
  store i16 0, ptr %17, align 4, !tbaa !82
  %18 = getelementptr inbounds nuw %struct.VlcState, ptr %22, i64 %indvars.iv35
  store i32 4, ptr %18, align 4, !tbaa !55
  %19 = getelementptr inbounds nuw %struct.VlcState, ptr %22, i64 %indvars.iv35, i32 2
  store i8 0, ptr %19, align 2, !tbaa !83
  %20 = getelementptr inbounds nuw %struct.VlcState, ptr %22, i64 %indvars.iv35, i32 3
  store i8 1, ptr %20, align 1, !tbaa !58
  %indvars.iv.next36 = add nuw nsw i64 %indvars.iv35, 1
  %exitcond39.not = icmp eq i64 %indvars.iv.next36, %wide.trip.count38
  br i1 %exitcond39.not, label %.loopexit.us, label %16, !llvm.loop !84

.loopexit.us:                                     ; preds = %16, %.preheader.us
  %indvars.iv.next41 = add nuw nsw i64 %indvars.iv40, 1
  %exitcond44.not = icmp eq i64 %indvars.iv.next41, %wide.trip.count43
  br i1 %exitcond44.not, label %._crit_edge, label %.preheader.us, !llvm.loop !85

.lr.ph.us:                                        ; preds = %.preheader.us
  %21 = getelementptr inbounds nuw i8, ptr %12, i64 16
  %22 = load ptr, ptr %21, align 8, !tbaa !54
  %wide.trip.count38 = zext nneg i32 %14 to i64
  br label %16

.lr.ph29.splitthread-pre-split:                   ; preds = %.loopexit
  %.pr = load i32, ptr %7, align 4, !tbaa !49
  br label %.lr.ph29.split

.lr.ph29.split:                                   ; preds = %.lr.ph29, %.lr.ph29.splitthread-pre-split
  %23 = phi i32 [ %.pr, %.lr.ph29.splitthread-pre-split ], [ 1, %.lr.ph29 ]
  %indvars.iv32 = phi i64 [ %indvars.iv.next33, %.lr.ph29.splitthread-pre-split ], [ 0, %.lr.ph29 ]
  %24 = load ptr, ptr %6, align 8, !tbaa !44
  %25 = getelementptr inbounds nuw %struct.PlaneContext, ptr %24, i64 %indvars.iv32
  %.not = icmp eq i32 %23, 0
  br i1 %.not, label %.preheader, label %31

.preheader:                                       ; preds = %.lr.ph29.split
  %26 = getelementptr inbounds nuw i8, ptr %25, i64 4
  %27 = load i32, ptr %26, align 4, !tbaa !53
  %28 = icmp sgt i32 %27, 0
  br i1 %28, label %.lr.ph, label %.loopexit

.lr.ph:                                           ; preds = %.preheader
  %29 = getelementptr inbounds nuw i8, ptr %25, i64 16
  %30 = load ptr, ptr %29, align 8, !tbaa !54
  %wide.trip.count = zext nneg i32 %27 to i64
  br label %44

31:                                               ; preds = %.lr.ph29.split
  %32 = load i32, ptr %25, align 8, !tbaa !86
  %33 = sext i32 %32 to i64
  %34 = getelementptr inbounds [8 x ptr], ptr %8, i64 0, i64 %33
  %35 = load ptr, ptr %34, align 8, !tbaa !80
  %.not26 = icmp eq ptr %35, null
  %36 = getelementptr inbounds nuw i8, ptr %25, i64 8
  %37 = load ptr, ptr %36, align 8, !tbaa !50
  %38 = getelementptr inbounds nuw i8, ptr %25, i64 4
  %39 = load i32, ptr %38, align 4, !tbaa !53
  %40 = shl nsw i32 %39, 5
  %41 = sext i32 %40 to i64
  br i1 %.not26, label %43, label %42

42:                                               ; preds = %31
  tail call void @llvm.memcpy.p0.p0.i64(ptr align 1 %37, ptr nonnull align 1 %35, i64 %41, i1 false)
  br label %.loopexit

43:                                               ; preds = %31
  tail call void @llvm.memset.p0.i64(ptr align 1 %37, i8 -128, i64 %41, i1 false)
  br label %.loopexit

44:                                               ; preds = %.lr.ph, %44
  %indvars.iv = phi i64 [ 0, %.lr.ph ], [ %indvars.iv.next, %44 ]
  %45 = getelementptr inbounds nuw %struct.VlcState, ptr %30, i64 %indvars.iv, i32 1
  store i16 0, ptr %45, align 4, !tbaa !82
  %46 = getelementptr inbounds nuw %struct.VlcState, ptr %30, i64 %indvars.iv
  store i32 4, ptr %46, align 4, !tbaa !55
  %47 = getelementptr inbounds nuw %struct.VlcState, ptr %30, i64 %indvars.iv, i32 2
  store i8 0, ptr %47, align 2, !tbaa !83
  %48 = getelementptr inbounds nuw %struct.VlcState, ptr %30, i64 %indvars.iv, i32 3
  store i8 1, ptr %48, align 1, !tbaa !58
  %indvars.iv.next = add nuw nsw i64 %indvars.iv, 1
  %exitcond.not = icmp eq i64 %indvars.iv.next, %wide.trip.count
  br i1 %exitcond.not, label %.loopexit, label %44, !llvm.loop !84

.loopexit:                                        ; preds = %44, %.preheader, %42, %43
  %indvars.iv.next33 = add nuw nsw i64 %indvars.iv32, 1
  %49 = load i32, ptr %3, align 8, !tbaa !43
  %50 = sext i32 %49 to i64
  %51 = icmp slt i64 %indvars.iv.next33, %50
  br i1 %51, label %.lr.ph29.splitthread-pre-split, label %._crit_edge, !llvm.loop !87

._crit_edge:                                      ; preds = %.loopexit, %.loopexit.us, %2
  ret void
}